target datalayout = "e-m:e-p270:32:32-p271:32:32-p272:64:64-i64:64-i128:128-f80:128-n8:16:32:64-S128"
target triple = "x86_64-pc-linux-gnu"

%struct.H5S_t = type { %struct.H5S_extent_t, %struct.H5S_select_t }
%struct.H5S_extent_t = type { %struct.H5O_shared_t, i32, i32, i64, i32, ptr, ptr }
%struct.H5O_shared_t = type { i32, ptr, i32, %union.anon }
%union.anon = type { %struct.H5O_mesg_loc_t }
%struct.H5O_mesg_loc_t = type { i32, i64 }
%struct.H5S_select_t = type { ptr, i8, [32 x i64], i64, %union.anon.0 }
%union.anon.0 = type { ptr }

@H5_libinit_g = external global i8, align 1
@H5_libterm_g = external global i8, align 1
@.str.1 = private unnamed_addr constant [103 x i8] c"generated/home/dtcxzyw/WorkSpace/Projects/compilers/llvm-opt-benchmark/bench/hdf5/hdf5/src/H5Sselect.c\00", align 1
@H5E_FUNC_g = external global i64, align 8
@H5E_CANTINIT_g = external global i64, align 8
@.str.2 = private unnamed_addr constant [30 x i8] c"library initialization failed\00", align 1
@H5E_CANTSET_g = external global i64, align 8
@.str.3 = private unnamed_addr constant [22 x i8] c"can't set API context\00", align 1
@H5E_DATASPACE_g = external global i64, align 8
@.str.4 = private unnamed_addr constant [16 x i8] c"not a dataspace\00", align 1
@H5E_BADTYPE_g = external global i64, align 8
@H5E_BADVALUE_g = external global i64, align 8
@H5E_CANTCOMPARE_g = external global i64, align 8
@__func__.H5Sselect_intersect_block = private unnamed_addr constant [26 x i8] c"H5Sselect_intersect_block\00", align 1
@.str.45 = private unnamed_addr constant [34 x i8] c"block start array pointer is NULL\00", align 1
@.str.46 = private unnamed_addr constant [32 x i8] c"block end array pointer is NULL\00", align 1
@H5E_BADRANGE_g = external global i64, align 8
@.str.47 = private unnamed_addr constant [40 x i8] c"block start[%u] (%llu) > end[%u] (%llu)\00", align 1
@.str.48 = private unnamed_addr constant [34 x i8] c"can't compare selection and block\00", align 1

; Function Attrs: nounwind uwtable
define i32 @H5Sselect_intersect_block(i64 noundef %0, ptr noundef %1, ptr noundef %2) #0 {
  %4 = alloca i64, align 8
  %5 = alloca ptr, align 8
  %6 = alloca ptr, align 8
  %7 = alloca ptr, align 8
  %8 = alloca i32, align 4
  %9 = alloca i32, align 4
  %10 = alloca i8, align 1
  %11 = alloca i8, align 1
  store i64 %0, ptr %4, align 8
  store ptr %1, ptr %5, align 8
  store ptr %2, ptr %6, align 8
  store i32 -1, ptr %9, align 4
  store i8 0, ptr %10, align 1
  store i8 0, ptr %11, align 1
  %12 = load i8, ptr @H5_libinit_g, align 1
  %13 = trunc i8 %12 to i1
  br i1 %13, label %18, label %14

14:                                               ; preds = %3
  %15 = load i8, ptr @H5_libterm_g, align 1
  %16 = trunc i8 %15 to i1
  %17 = xor i1 %16, true
  br label %18

18:                                               ; preds = %14, %3
  %19 = phi i1 [ false, %3 ], [ %17, %14 ]
  %20 = xor i1 %19, true
  %21 = xor i1 %20, true
  %22 = zext i1 %21 to i32
  %23 = sext i32 %22 to i64
  %24 = icmp ne i64 %23, 0
  br i1 %24, label %25, label %49

25:                                               ; preds = %18
  %26 = call i32 @H5_init_library()
  %27 = icmp slt i32 %26, 0
  %28 = xor i1 %27, true
  %29 = xor i1 %28, true
  %30 = zext i1 %29 to i32
  %31 = sext i32 %30 to i64
  %32 = icmp ne i64 %31, 0
  br i1 %32, label %33, label %48

33:                                               ; preds = %25
  br label %34

34:                                               ; preds = %33
  br label %35

35:                                               ; preds = %34
  br label %36

36:                                               ; preds = %35
  %37 = load i64, ptr @H5E_FUNC_g, align 8
  %38 = load i64, ptr @H5E_CANTINIT_g, align 8
  %39 = call i32 (ptr, ptr, i32, i64, i64, ptr, ...) @H5E_printf_stack(ptr noundef @.str.1, ptr noundef @__func__.H5Sselect_intersect_block, i32 noundef 1981, i64 noundef %37, i64 noundef %38, ptr noundef @.str.2)
  br label %40

40:                                               ; preds = %36
  store i8 1, ptr %11, align 1
  %41 = load i8, ptr %11, align 1
  %42 = trunc i8 %41 to i1
  %43 = zext i1 %42 to i8
  store i8 %43, ptr %11, align 1
  br label %44

44:                                               ; preds = %40
  br label %45

45:                                               ; preds = %44
  store i32 -1, ptr %9, align 4
  br label %202

46:                                               ; No predecessors!
  br label %47

47:                                               ; preds = %46
  br label %48

48:                                               ; preds = %47, %25
  br label %49

49:                                               ; preds = %48, %18
  %50 = call i32 @H5CX_push()
  %51 = icmp slt i32 %50, 0
  %52 = xor i1 %51, true
  %53 = xor i1 %52, true
  %54 = zext i1 %53 to i32
  %55 = sext i32 %54 to i64
  %56 = icmp ne i64 %55, 0
  br i1 %56, label %57, label %72

57:                                               ; preds = %49
  br label %58

58:                                               ; preds = %57
  br label %59

59:                                               ; preds = %58
  br label %60

60:                                               ; preds = %59
  %61 = load i64, ptr @H5E_FUNC_g, align 8
  %62 = load i64, ptr @H5E_CANTSET_g, align 8
  %63 = call i32 (ptr, ptr, i32, i64, i64, ptr, ...) @H5E_printf_stack(ptr noundef @.str.1, ptr noundef @__func__.H5Sselect_intersect_block, i32 noundef 1981, i64 noundef %61, i64 noundef %62, ptr noundef @.str.3)
  br label %64

64:                                               ; preds = %60
  store i8 1, ptr %11, align 1
  %65 = load i8, ptr %11, align 1
  %66 = trunc i8 %65 to i1
  %67 = zext i1 %66 to i8
  store i8 %67, ptr %11, align 1
  br label %68

68:                                               ; preds = %64
  br label %69

69:                                               ; preds = %68
  store i32 -1, ptr %9, align 4
  br label %202

70:                                               ; No predecessors!
  br label %71

71:                                               ; preds = %70
  br label %73

72:                                               ; preds = %49
  store i8 1, ptr %10, align 1
  br label %73

73:                                               ; preds = %72, %71
  %74 = call i32 @H5E_clear_stack()
  %75 = load i64, ptr %4, align 8
  %76 = call ptr @H5I_object_verify(i64 noundef %75, i32 noundef 4)
  store ptr %76, ptr %7, align 8
  %77 = icmp eq ptr null, %76
  br i1 %77, label %78, label %93

78:                                               ; preds = %73
  br label %79

79:                                               ; preds = %78
  br label %80

80:                                               ; preds = %79
  br label %81

81:                                               ; preds = %80
  %82 = load i64, ptr @H5E_DATASPACE_g, align 8
  %83 = load i64, ptr @H5E_BADTYPE_g, align 8
  %84 = call i32 (ptr, ptr, i32, i64, i64, ptr, ...) @H5E_printf_stack(ptr noundef @.str.1, ptr noundef @__func__.H5Sselect_intersect_block, i32 noundef 1985, i64 noundef %82, i64 noundef %83, ptr noundef @.str.4)
  br label %85

85:                                               ; preds = %81
  store i8 1, ptr %11, align 1
  %86 = load i8, ptr %11, align 1
  %87 = trunc i8 %86 to i1
  %88 = zext i1 %87 to i8
  store i8 %88, ptr %11, align 1
  br label %89

89:                                               ; preds = %85
  br label %90

90:                                               ; preds = %89
  store i32 -1, ptr %9, align 4
  br label %202

91:                                               ; No predecessors!
  br label %92

92:                                               ; preds = %91
  br label %93

93:                                               ; preds = %92, %73
  %94 = load ptr, ptr %5, align 8
  %95 = icmp eq ptr null, %94
  br i1 %95, label %96, label %111

96:                                               ; preds = %93
  br label %97

97:                                               ; preds = %96
  br label %98

98:                                               ; preds = %97
  br label %99

99:                                               ; preds = %98
  %100 = load i64, ptr @H5E_DATASPACE_g, align 8
  %101 = load i64, ptr @H5E_BADVALUE_g, align 8
  %102 = call i32 (ptr, ptr, i32, i64, i64, ptr, ...) @H5E_printf_stack(ptr noundef @.str.1, ptr noundef @__func__.H5Sselect_intersect_block, i32 noundef 1987, i64 noundef %100, i64 noundef %101, ptr noundef @.str.45)
  br label %103

103:                                              ; preds = %99
  store i8 1, ptr %11, align 1
  %104 = load i8, ptr %11, align 1
  %105 = trunc i8 %104 to i1
  %106 = zext i1 %105 to i8
  store i8 %106, ptr %11, align 1
  br label %107

107:                                              ; preds = %103
  br label %108

108:                                              ; preds = %107
  store i32 -1, ptr %9, align 4
  br label %202

109:                                              ; No predecessors!
  br label %110

110:                                              ; preds = %109
  br label %111

111:                                              ; preds = %110, %93
  %112 = load ptr, ptr %6, align 8
  %113 = icmp eq ptr null, %112
  br i1 %113, label %114, label %129

114:                                              ; preds = %111
  br label %115

115:                                              ; preds = %114
  br label %116

116:                                              ; preds = %115
  br label %117

117:                                              ; preds = %116
  %118 = load i64, ptr @H5E_DATASPACE_g, align 8
  %119 = load i64, ptr @H5E_BADVALUE_g, align 8
  %120 = call i32 (ptr, ptr, i32, i64, i64, ptr, ...) @H5E_printf_stack(ptr noundef @.str.1, ptr noundef @__func__.H5Sselect_intersect_block, i32 noundef 1989, i64 noundef %118, i64 noundef %119, ptr noundef @.str.46)
  br label %121

121:                                              ; preds = %117
  store i8 1, ptr %11, align 1
  %122 = load i8, ptr %11, align 1
  %123 = trunc i8 %122 to i1
  %124 = zext i1 %123 to i8
  store i8 %124, ptr %11, align 1
  br label %125

125:                                              ; preds = %121
  br label %126

126:                                              ; preds = %125
  store i32 -1, ptr %9, align 4
  br label %202

127:                                              ; No predecessors!
  br label %128

128:                                              ; preds = %127
  br label %129

129:                                              ; preds = %128, %111
  store i32 0, ptr %8, align 4
  br label %130

130:                                              ; preds = %177, %129
  %131 = load i32, ptr %8, align 4
  %132 = load ptr, ptr %7, align 8
  %133 = getelementptr inbounds %struct.H5S_t, ptr %132, i32 0, i32 0
  %134 = getelementptr inbounds %struct.H5S_extent_t, ptr %133, i32 0, i32 4
  %135 = load i32, ptr %134, align 8
  %136 = icmp ult i32 %131, %135
  br i1 %136, label %137, label %180

137:                                              ; preds = %130
  %138 = load ptr, ptr %5, align 8
  %139 = load i32, ptr %8, align 4
  %140 = zext i32 %139 to i64
  %141 = getelementptr inbounds i64, ptr %138, i64 %140
  %142 = load i64, ptr %141, align 8
  %143 = load ptr, ptr %6, align 8
  %144 = load i32, ptr %8, align 4
  %145 = zext i32 %144 to i64
  %146 = getelementptr inbounds i64, ptr %143, i64 %145
  %147 = load i64, ptr %146, align 8
  %148 = icmp ugt i64 %142, %147
  br i1 %148, label %149, label %176

149:                                              ; preds = %137
  br label %150

150:                                              ; preds = %149
  br label %151

151:                                              ; preds = %150
  br label %152

152:                                              ; preds = %151
  %153 = load i64, ptr @H5E_DATASPACE_g, align 8
  %154 = load i64, ptr @H5E_BADRANGE_g, align 8
  %155 = load i32, ptr %8, align 4
  %156 = load ptr, ptr %5, align 8
  %157 = load i32, ptr %8, align 4
  %158 = zext i32 %157 to i64
  %159 = getelementptr inbounds i64, ptr %156, i64 %158
  %160 = load i64, ptr %159, align 8
  %161 = load i32, ptr %8, align 4
  %162 = load ptr, ptr %6, align 8
  %163 = load i32, ptr %8, align 4
  %164 = zext i32 %163 to i64
  %165 = getelementptr inbounds i64, ptr %162, i64 %164
  %166 = load i64, ptr %165, align 8
  %167 = call i32 (ptr, ptr, i32, i64, i64, ptr, ...) @H5E_printf_stack(ptr noundef @.str.1, ptr noundef @__func__.H5Sselect_intersect_block, i32 noundef 1995, i64 noundef %153, i64 noundef %154, ptr noundef @.str.47, i32 noundef %155, i64 noundef %160, i32 noundef %161, i64 noundef %166)
  br label %168

168:                                              ; preds = %152
  store i8 1, ptr %11, align 1
  %169 = load i8, ptr %11, align 1
  %170 = trunc i8 %169 to i1
  %171 = zext i1 %170 to i8
  store i8 %171, ptr %11, align 1
  br label %172

172:                                              ; preds = %168
  br label %173

173:                                              ; preds = %172
  store i32 -1, ptr %9, align 4
  br label %202

174:                                              ; No predecessors!
  br label %175

175:                                              ; preds = %174
  br label %176

176:                                              ; preds = %175, %137
  br label %177

177:                                              ; preds = %176
  %178 = load i32, ptr %8, align 4
  %179 = add i32 %178, 1
  store i32 %179, ptr %8, align 4
  br label %130

180:                                              ; preds = %130
  %181 = load ptr, ptr %7, align 8
  %182 = load ptr, ptr %5, align 8
  %183 = load ptr, ptr %6, align 8
  %184 = call i32 @H5S_select_intersect_block(ptr noundef %181, ptr noundef %182, ptr noundef %183)
  store i32 %184, ptr %9, align 4
  %185 = icmp slt i32 %184, 0
  br i1 %185, label %186, label %201

186:                                              ; preds = %180
  br label %187

187:                                              ; preds = %186
  br label %188

188:                                              ; preds = %187
  br label %189

189:                                              ; preds = %188
  %190 = load i64, ptr @H5E_DATASPACE_g, align 8
  %191 = load i64, ptr @H5E_CANTCOMPARE_g, align 8
  %192 = call i32 (ptr, ptr, i32, i64, i64, ptr, ...) @H5E_printf_stack(ptr noundef @.str.1, ptr noundef @__func__.H5Sselect_intersect_block, i32 noundef 1999, i64 noundef %190, i64 noundef %191, ptr noundef @.str.48)
  br label %193

193:                                              ; preds = %189
  store i8 1, ptr %11, align 1
  %194 = load i8, ptr %11, align 1
  %195 = trunc i8 %194 to i1
  %196 = zext i1 %195 to i8
  store i8 %196, ptr %11, align 1
  br label %197

197:                                              ; preds = %193
  br label %198

198:                                              ; preds = %197
  store i32 -1, ptr %9, align 4
  br label %202

199:                                              ; No predecessors!
  br label %200

200:                                              ; preds = %199
  br label %201

201:                                              ; preds = %200, %180
  br label %202

202:                                              ; preds = %201, %198, %173, %126, %108, %90, %69, %45
  %203 = load i8, ptr %10, align 1
  %204 = trunc i8 %203 to i1
  %205 = xor i1 %204, true
  %206 = xor i1 %205, true
  %207 = zext i1 %206 to i32
  %208 = sext i32 %207 to i64
  %209 = icmp ne i64 %208, 0
  br i1 %209, label %210, label %212

210:                                              ; preds = %202
  %211 = call i32 @H5CX_pop(i1 noundef zeroext true)
  store i8 0, ptr %10, align 1
  br label %212

212:                                              ; preds = %210, %202
  %213 = load i8, ptr %11, align 1
  %214 = trunc i8 %213 to i1
  %215 = xor i1 %214, true
  %216 = xor i1 %215, true
  %217 = zext i1 %216 to i32
  %218 = sext i32 %217 to i64
  %219 = icmp ne i64 %218, 0
  br i1 %219, label %220, label %222

220:                                              ; preds = %212
  %221 = call i32 @H5E_dump_api_stack()
  br label %222

222:                                              ; preds = %220, %212
  %223 = load i32, ptr %9, align 4
  ret i32 %223
}