; Function Attrs: nounwind uwtable
define range(i32 -1, -2147483648) i32 @H5Sselect_intersect_block(i64 noundef %0, ptr noundef %1, ptr noundef %2) local_unnamed_addr #3 {
  %4 = load i8, ptr @H5_libinit_g, align 1
  %5 = trunc i8 %4 to i1
  %6 = load i8, ptr @H5_libterm_g, align 1
  %7 = trunc i8 %6 to i1
  %8 = select i1 %5, i1 true, i1 %7
  br i1 %8, label %16, label %9

9:                                                ; preds = %3
  %10 = tail call i32 @H5_init_library() #7
  %11 = icmp slt i32 %10, 0
  br i1 %11, label %12, label %16

12:                                               ; preds = %9
  %13 = load i64, ptr @H5E_FUNC_g, align 8
  %14 = load i64, ptr @H5E_CANTINIT_g, align 8
  %15 = tail call i32 (ptr, ptr, i32, i64, i64, ptr, ...) @H5E_printf_stack(ptr noundef nonnull @.str.1, ptr noundef nonnull @__func__.H5Sselect_intersect_block, i32 noundef 1981, i64 noundef %13, i64 noundef %14, ptr noundef nonnull @.str.2) #7
  br label %.thread45

16:                                               ; preds = %9, %3
  %17 = tail call i32 @H5CX_push() #7
  %18 = icmp slt i32 %17, 0
  br i1 %18, label %19, label %23

19:                                               ; preds = %16
  %20 = load i64, ptr @H5E_FUNC_g, align 8
  %21 = load i64, ptr @H5E_CANTSET_g, align 8
  %22 = tail call i32 (ptr, ptr, i32, i64, i64, ptr, ...) @H5E_printf_stack(ptr noundef nonnull @.str.1, ptr noundef nonnull @__func__.H5Sselect_intersect_block, i32 noundef 1981, i64 noundef %20, i64 noundef %21, ptr noundef nonnull @.str.3) #7
  br label %.thread45

23:                                               ; preds = %16
  %24 = tail call i32 @H5E_clear_stack() #7
  %25 = tail call ptr @H5I_object_verify(i64 noundef %0, i32 noundef 4) #7
  %26 = icmp eq ptr %25, null
  br i1 %26, label %27, label %31

27:                                               ; preds = %23
  %28 = load i64, ptr @H5E_DATASPACE_g, align 8
  %29 = load i64, ptr @H5E_BADTYPE_g, align 8
  %30 = tail call i32 (ptr, ptr, i32, i64, i64, ptr, ...) @H5E_printf_stack(ptr noundef nonnull @.str.1, ptr noundef nonnull @__func__.H5Sselect_intersect_block, i32 noundef 1985, i64 noundef %28, i64 noundef %29, ptr noundef nonnull @.str.4) #7
  br label %.thread51

31:                                               ; preds = %23
  %32 = icmp eq ptr %1, null
  br i1 %32, label %33, label %37

33:                                               ; preds = %31
  %34 = load i64, ptr @H5E_DATASPACE_g, align 8
  %35 = load i64, ptr @H5E_BADVALUE_g, align 8
  %36 = tail call i32 (ptr, ptr, i32, i64, i64, ptr, ...) @H5E_printf_stack(ptr noundef nonnull @.str.1, ptr noundef nonnull @__func__.H5Sselect_intersect_block, i32 noundef 1987, i64 noundef %34, i64 noundef %35, ptr noundef nonnull @.str.45) #7
  br label %.thread51

37:                                               ; preds = %31
  %38 = icmp eq ptr %2, null
  br i1 %38, label %41, label %.preheader

.preheader:                                       ; preds = %37
  %39 = getelementptr inbounds i8, ptr %25, i64 56
  %40 = load i32, ptr %39, align 8
  %.not = icmp eq i32 %40, 0
  br i1 %.not, label %._crit_edge, label %.lr.ph.preheader

.lr.ph.preheader:                                 ; preds = %.preheader
  %wide.trip.count = zext i32 %40 to i64
  br label %.lr.ph

41:                                               ; preds = %37
  %42 = load i64, ptr @H5E_DATASPACE_g, align 8
  %43 = load i64, ptr @H5E_BADVALUE_g, align 8
  %44 = tail call i32 (ptr, ptr, i32, i64, i64, ptr, ...) @H5E_printf_stack(ptr noundef nonnull @.str.1, ptr noundef nonnull @__func__.H5Sselect_intersect_block, i32 noundef 1989, i64 noundef %42, i64 noundef %43, ptr noundef nonnull @.str.46) #7
  br label %.thread51

.lr.ph:                                           ; preds = %.lr.ph.preheader, %55
  %indvars.iv = phi i64 [ 0, %.lr.ph.preheader ], [ %indvars.iv.next, %55 ]
  %45 = getelementptr inbounds i64, ptr %1, i64 %indvars.iv
  %46 = load i64, ptr %45, align 8
  %47 = getelementptr inbounds i64, ptr %2, i64 %indvars.iv
  %48 = load i64, ptr %47, align 8
  %49 = icmp ugt i64 %46, %48
  br i1 %49, label %50, label %55

50:                                               ; preds = %.lr.ph
  %51 = trunc nuw i64 %indvars.iv to i32
  %52 = load i64, ptr @H5E_DATASPACE_g, align 8
  %53 = load i64, ptr @H5E_BADRANGE_g, align 8
  %54 = tail call i32 (ptr, ptr, i32, i64, i64, ptr, ...) @H5E_printf_stack(ptr noundef nonnull @.str.1, ptr noundef nonnull @__func__.H5Sselect_intersect_block, i32 noundef 1995, i64 noundef %52, i64 noundef %53, ptr noundef nonnull @.str.47, i32 noundef %51, i64 noundef %46, i32 noundef %51, i64 noundef %48) #7
  br label %.thread51

55:                                               ; preds = %.lr.ph
  %indvars.iv.next = add nuw nsw i64 %indvars.iv, 1
  %exitcond.not = icmp eq i64 %indvars.iv.next, %wide.trip.count
  br i1 %exitcond.not, label %._crit_edge, label %.lr.ph

._crit_edge:                                      ; preds = %55, %.preheader
  %56 = tail call i32 @H5S_select_intersect_block(ptr noundef nonnull %25, ptr noundef nonnull %1, ptr noundef nonnull %2)
  %57 = icmp slt i32 %56, 0
  br i1 %57, label %58, label %63

58:                                               ; preds = %._crit_edge
  %59 = load i64, ptr @H5E_DATASPACE_g, align 8
  %60 = load i64, ptr @H5E_CANTCOMPARE_g, align 8
  %61 = tail call i32 (ptr, ptr, i32, i64, i64, ptr, ...) @H5E_printf_stack(ptr noundef nonnull @.str.1, ptr noundef nonnull @__func__.H5Sselect_intersect_block, i32 noundef 1999, i64 noundef %59, i64 noundef %60, ptr noundef nonnull @.str.48) #7
  br label %.thread51

.thread51:                                        ; preds = %58, %50, %41, %33, %27
  %62 = tail call i32 @H5CX_pop(i1 noundef zeroext true) #7
  br label %.thread45

63:                                               ; preds = %._crit_edge
  %64 = tail call i32 @H5CX_pop(i1 noundef zeroext true) #7
  br label %66

.thread45:                                        ; preds = %19, %12, %.thread51
  %65 = tail call i32 @H5E_dump_api_stack() #7
  br label %66

66:                                               ; preds = %63, %.thread45
  %.0294048 = phi i32 [ -1, %.thread45 ], [ %56, %63 ]
  ret i32 %.0294048
}